; ModuleID = 'source-C-CXX/18/1684.cpp'
source_filename = "source-C-CXX/18/1684.cpp"
target datalayout = "e-m:e-p270:32:32-p271:32:32-p272:64:64-i64:64-f80:128-n8:16:32:64-S128"
target triple = "x86_64-pc-linux-gnu"

%"class.std::ios_base::Init" = type { i8 }
%"class.std::basic_istream" = type { i32 (...)**, i64, %"class.std::basic_ios" }
%"class.std::basic_ios" = type { %"class.std::ios_base", %"class.std::basic_ostream"*, i8, i8, %"class.std::basic_streambuf"*, %"class.std::ctype"*, %"class.std::num_put"*, %"class.std::num_get"* }
%"class.std::ios_base" = type { i32 (...)**, i64, i64, i32, i32, i32, %"struct.std::ios_base::_Callback_list"*, %"struct.std::ios_base::_Words", [8 x %"struct.std::ios_base::_Words"], i32, %"struct.std::ios_base::_Words"*, %"class.std::locale" }
%"struct.std::ios_base::_Callback_list" = type { %"struct.std::ios_base::_Callback_list"*, void (i32, %"class.std::ios_base"*, i32)*, i32, i32 }
%"struct.std::ios_base::_Words" = type { i8*, i64 }
%"class.std::locale" = type { %"class.std::locale::_Impl"* }
%"class.std::locale::_Impl" = type { i32, %"class.std::locale::facet"**, i64, %"class.std::locale::facet"**, i8** }
%"class.std::locale::facet" = type <{ i32 (...)**, i32, [4 x i8] }>
%"class.std::basic_ostream" = type { i32 (...)**, %"class.std::basic_ios" }
%"class.std::basic_streambuf" = type { i32 (...)**, i8*, i8*, i8*, i8*, i8*, i8*, %"class.std::locale" }
%"class.std::ctype" = type <{ %"class.std::locale::facet.base", [4 x i8], %struct.__locale_struct*, i8, [7 x i8], i32*, i32*, i16*, i8, [256 x i8], [256 x i8], i8, [6 x i8] }>
%"class.std::locale::facet.base" = type <{ i32 (...)**, i32 }>
%struct.__locale_struct = type { [13 x %struct.__locale_data*], i16*, i32*, i32*, [13 x i8*] }
%struct.__locale_data = type opaque
%"class.std::num_put" = type { %"class.std::locale::facet.base", [4 x i8] }
%"class.std::num_get" = type { %"class.std::locale::facet.base", [4 x i8] }

@_ZStL8__ioinit = internal global %"class.std::ios_base::Init" zeroinitializer, align 1
@__dso_handle = external hidden global i8
@_ZSt3cin = external global %"class.std::basic_istream", align 8
@_ZSt4cout = external global %"class.std::basic_ostream", align 8
@llvm.global_ctors = appending global [1 x { i32, void ()*, i8* }] [{ i32, void ()*, i8* } { i32 65535, void ()* @_GLOBAL__sub_I_1684.cpp, i8* null }]

declare void @_ZNSt8ios_base4InitC1Ev(%"class.std::ios_base::Init"* nonnull align 1 dereferenceable(1)) unnamed_addr #0

; Function Attrs: nounwind
declare void @_ZNSt8ios_base4InitD1Ev(%"class.std::ios_base::Init"* nonnull align 1 dereferenceable(1)) unnamed_addr #1

; Function Attrs: nofree nounwind
declare i32 @__cxa_atexit(void (i8*)*, i8*, i8*) local_unnamed_addr #2

; Function Attrs: mustprogress norecurse sspstrong uwtable
define dso_local i32 @main() local_unnamed_addr #3 {
  %1 = alloca i8, align 1
  %2 = alloca [100 x i8], align 16
  %3 = alloca [100 x i8], align 16
  %4 = alloca [100 x i8], align 16
  %5 = getelementptr inbounds [100 x i8], [100 x i8]* %2, i64 0, i64 0
  call void @llvm.lifetime.start.p0i8(i64 100, i8* nonnull %5) #8
  %6 = getelementptr inbounds [100 x i8], [100 x i8]* %3, i64 0, i64 0
  call void @llvm.lifetime.start.p0i8(i64 100, i8* nonnull %6) #8
  %7 = getelementptr inbounds [100 x i8], [100 x i8]* %4, i64 0, i64 0
  call void @llvm.lifetime.start.p0i8(i64 100, i8* nonnull %7) #8
  %8 = load i8*, i8** bitcast (%"class.std::basic_istream"* @_ZSt3cin to i8**), align 8, !tbaa !5
  %9 = getelementptr i8, i8* %8, i64 -24
  %10 = bitcast i8* %9 to i64*
  %11 = load i64, i64* %10, align 8
  %12 = add nsw i64 %11, 240
  %13 = getelementptr inbounds i8, i8* bitcast (%"class.std::basic_istream"* @_ZSt3cin to i8*), i64 %12
  %14 = bitcast i8* %13 to %"class.std::ctype"**
  %15 = load %"class.std::ctype"*, %"class.std::ctype"** %14, align 8, !tbaa !8
  %16 = icmp eq %"class.std::ctype"* %15, null
  br i1 %16, label %17, label %18

17:                                               ; preds = %0
  tail call void @_ZSt16__throw_bad_castv() #9
  unreachable

18:                                               ; preds = %0
  %19 = getelementptr inbounds %"class.std::ctype", %"class.std::ctype"* %15, i64 0, i32 8
  %20 = load i8, i8* %19, align 8, !tbaa !13
  %21 = icmp eq i8 %20, 0
  br i1 %21, label %25, label %22

22:                                               ; preds = %18
  %23 = getelementptr inbounds %"class.std::ctype", %"class.std::ctype"* %15, i64 0, i32 9, i64 10
  %24 = load i8, i8* %23, align 1, !tbaa !15
  br label %31

25:                                               ; preds = %18
  tail call void @_ZNKSt5ctypeIcE13_M_widen_initEv(%"class.std::ctype"* nonnull align 8 dereferenceable(570) %15)
  %26 = bitcast %"class.std::ctype"* %15 to i8 (%"class.std::ctype"*, i8)***
  %27 = load i8 (%"class.std::ctype"*, i8)**, i8 (%"class.std::ctype"*, i8)*** %26, align 8, !tbaa !5
  %28 = getelementptr inbounds i8 (%"class.std::ctype"*, i8)*, i8 (%"class.std::ctype"*, i8)** %27, i64 6
  %29 = load i8 (%"class.std::ctype"*, i8)*, i8 (%"class.std::ctype"*, i8)** %28, align 8
  %30 = tail call signext i8 %29(%"class.std::ctype"* nonnull align 8 dereferenceable(570) %15, i8 signext 10)
  br label %31

31:                                               ; preds = %22, %25
  %32 = phi i8 [ %24, %22 ], [ %30, %25 ]
  %33 = call nonnull align 8 dereferenceable(16) %"class.std::basic_istream"* @_ZNSi7getlineEPclc(%"class.std::basic_istream"* nonnull align 8 dereferenceable(16) @_ZSt3cin, i8* nonnull %5, i64 100, i8 signext %32)
  %34 = load i8*, i8** bitcast (%"class.std::basic_istream"* @_ZSt3cin to i8**), align 8, !tbaa !5
  %35 = getelementptr i8, i8* %34, i64 -24
  %36 = bitcast i8* %35 to i64*
  %37 = load i64, i64* %36, align 8
  %38 = add nsw i64 %37, 240
  %39 = getelementptr inbounds i8, i8* bitcast (%"class.std::basic_istream"* @_ZSt3cin to i8*), i64 %38
  %40 = bitcast i8* %39 to %"class.std::ctype"**
  %41 = load %"class.std::ctype"*, %"class.std::ctype"** %40, align 8, !tbaa !8
  %42 = icmp eq %"class.std::ctype"* %41, null
  br i1 %42, label %43, label %44

43:                                               ; preds = %31
  call void @_ZSt16__throw_bad_castv() #9
  unreachable

44:                                               ; preds = %31
  %45 = getelementptr inbounds %"class.std::ctype", %"class.std::ctype"* %41, i64 0, i32 8
  %46 = load i8, i8* %45, align 8, !tbaa !13
  %47 = icmp eq i8 %46, 0
  br i1 %47, label %51, label %48

48:                                               ; preds = %44
  %49 = getelementptr inbounds %"class.std::ctype", %"class.std::ctype"* %41, i64 0, i32 9, i64 10
  %50 = load i8, i8* %49, align 1, !tbaa !15
  br label %57

51:                                               ; preds = %44
  call void @_ZNKSt5ctypeIcE13_M_widen_initEv(%"class.std::ctype"* nonnull align 8 dereferenceable(570) %41)
  %52 = bitcast %"class.std::ctype"* %41 to i8 (%"class.std::ctype"*, i8)***
  %53 = load i8 (%"class.std::ctype"*, i8)**, i8 (%"class.std::ctype"*, i8)*** %52, align 8, !tbaa !5
  %54 = getelementptr inbounds i8 (%"class.std::ctype"*, i8)*, i8 (%"class.std::ctype"*, i8)** %53, i64 6
  %55 = load i8 (%"class.std::ctype"*, i8)*, i8 (%"class.std::ctype"*, i8)** %54, align 8
  %56 = call signext i8 %55(%"class.std::ctype"* nonnull align 8 dereferenceable(570) %41, i8 signext 10)
  br label %57

57:                                               ; preds = %48, %51
  %58 = phi i8 [ %50, %48 ], [ %56, %51 ]
  %59 = call nonnull align 8 dereferenceable(16) %"class.std::basic_istream"* @_ZNSi7getlineEPclc(%"class.std::basic_istream"* nonnull align 8 dereferenceable(16) @_ZSt3cin, i8* nonnull %6, i64 100, i8 signext %58)
  %60 = load i8*, i8** bitcast (%"class.std::basic_istream"* @_ZSt3cin to i8**), align 8, !tbaa !5
  %61 = getelementptr i8, i8* %60, i64 -24
  %62 = bitcast i8* %61 to i64*
  %63 = load i64, i64* %62, align 8
  %64 = add nsw i64 %63, 240
  %65 = getelementptr inbounds i8, i8* bitcast (%"class.std::basic_istream"* @_ZSt3cin to i8*), i64 %64
  %66 = bitcast i8* %65 to %"class.std::ctype"**
  %67 = load %"class.std::ctype"*, %"class.std::ctype"** %66, align 8, !tbaa !8
  %68 = icmp eq %"class.std::ctype"* %67, null
  br i1 %68, label %69, label %70

69:                                               ; preds = %57
  call void @_ZSt16__throw_bad_castv() #9
  unreachable

70:                                               ; preds = %57
  %71 = getelementptr inbounds %"class.std::ctype", %"class.std::ctype"* %67, i64 0, i32 8
  %72 = load i8, i8* %71, align 8, !tbaa !13
  %73 = icmp eq i8 %72, 0
  br i1 %73, label %77, label %74

74:                                               ; preds = %70
  %75 = getelementptr inbounds %"class.std::ctype", %"class.std::ctype"* %67, i64 0, i32 9, i64 10
  %76 = load i8, i8* %75, align 1, !tbaa !15
  br label %83

77:                                               ; preds = %70
  call void @_ZNKSt5ctypeIcE13_M_widen_initEv(%"class.std::ctype"* nonnull align 8 dereferenceable(570) %67)
  %78 = bitcast %"class.std::ctype"* %67 to i8 (%"class.std::ctype"*, i8)***
  %79 = load i8 (%"class.std::ctype"*, i8)**, i8 (%"class.std::ctype"*, i8)*** %78, align 8, !tbaa !5
  %80 = getelementptr inbounds i8 (%"class.std::ctype"*, i8)*, i8 (%"class.std::ctype"*, i8)** %79, i64 6
  %81 = load i8 (%"class.std::ctype"*, i8)*, i8 (%"class.std::ctype"*, i8)** %80, align 8
  %82 = call signext i8 %81(%"class.std::ctype"* nonnull align 8 dereferenceable(570) %67, i8 signext 10)
  br label %83

83:                                               ; preds = %74, %77
  %84 = phi i8 [ %76, %74 ], [ %82, %77 ]
  %85 = call nonnull align 8 dereferenceable(16) %"class.std::basic_istream"* @_ZNSi7getlineEPclc(%"class.std::basic_istream"* nonnull align 8 dereferenceable(16) @_ZSt3cin, i8* nonnull %7, i64 100, i8 signext %84)
  %86 = load i8, i8* %5, align 16, !tbaa !15
  %87 = icmp eq i8 %86, 0
  br i1 %87, label %135, label %88

88:                                               ; preds = %83, %128
  %89 = phi i8 [ %133, %128 ], [ %86, %83 ]
  %90 = phi i32 [ %130, %128 ], [ 0, %83 ]
  %91 = phi i32 [ %129, %128 ], [ 0, %83 ]
  %92 = add nsw i32 %90, %91
  %93 = sext i32 %92 to i64
  %94 = getelementptr inbounds [100 x i8], [100 x i8]* %2, i64 0, i64 %93
  %95 = load i8, i8* %94, align 1, !tbaa !15
  %96 = sext i32 %90 to i64
  %97 = getelementptr inbounds [100 x i8], [100 x i8]* %3, i64 0, i64 %96
  %98 = load i8, i8* %97, align 1, !tbaa !15
  %99 = icmp eq i8 %95, %98
  br i1 %99, label %100, label %110

100:                                              ; preds = %88
  %101 = add nsw i32 %91, -1
  %102 = sext i32 %101 to i64
  %103 = getelementptr inbounds [100 x i8], [100 x i8]* %2, i64 0, i64 %102
  %104 = load i8, i8* %103, align 1, !tbaa !15
  %105 = icmp eq i8 %104, 32
  %106 = icmp eq i32 %91, 0
  %107 = select i1 %105, i1 true, i1 %106
  br i1 %107, label %108, label %110

108:                                              ; preds = %100
  %109 = add nsw i32 %90, 1
  br label %113

110:                                              ; preds = %100, %88
  call void @llvm.lifetime.start.p0i8(i64 1, i8* nonnull %1)
  store i8 %89, i8* %1, align 1, !tbaa !15
  %111 = call nonnull align 8 dereferenceable(8) %"class.std::basic_ostream"* @_ZSt16__ostream_insertIcSt11char_traitsIcEERSt13basic_ostreamIT_T0_ES6_PKS3_l(%"class.std::basic_ostream"* nonnull align 8 dereferenceable(8) @_ZSt4cout, i8* nonnull %1, i64 1)
  call void @llvm.lifetime.end.p0i8(i64 1, i8* nonnull %1)
  %112 = add nsw i32 %91, 1
  br label %113

113:                                              ; preds = %110, %108
  %114 = phi i32 [ %91, %108 ], [ %112, %110 ]
  %115 = phi i32 [ %109, %108 ], [ 0, %110 ]
  %116 = sext i32 %115 to i64
  %117 = getelementptr inbounds [100 x i8], [100 x i8]* %3, i64 0, i64 %116
  %118 = load i8, i8* %117, align 1, !tbaa !15
  %119 = icmp eq i8 %118, 0
  br i1 %119, label %120, label %128

120:                                              ; preds = %113
  %121 = add nsw i32 %115, %114
  %122 = sext i32 %121 to i64
  %123 = getelementptr inbounds [100 x i8], [100 x i8]* %2, i64 0, i64 %122
  %124 = load i8, i8* %123, align 1, !tbaa !15
  switch i8 %124, label %128 [
    i8 32, label %125
    i8 0, label %125
  ]

125:                                              ; preds = %120, %120
  %126 = call i64 @strlen(i8* noundef nonnull dereferenceable(1) %7) #8
  %127 = call nonnull align 8 dereferenceable(8) %"class.std::basic_ostream"* @_ZSt16__ostream_insertIcSt11char_traitsIcEERSt13basic_ostreamIT_T0_ES6_PKS3_l(%"class.std::basic_ostream"* nonnull align 8 dereferenceable(8) @_ZSt4cout, i8* nonnull %7, i64 %126)
  br label %128

128:                                              ; preds = %120, %125, %113
  %129 = phi i32 [ %121, %125 ], [ %114, %113 ], [ %114, %120 ]
  %130 = phi i32 [ 0, %125 ], [ %115, %113 ], [ %115, %120 ]
  %131 = sext i32 %129 to i64
  %132 = getelementptr inbounds [100 x i8], [100 x i8]* %2, i64 0, i64 %131
  %133 = load i8, i8* %132, align 1, !tbaa !15
  %134 = icmp eq i8 %133, 0
  br i1 %134, label %135, label %88, !llvm.loop !16

135:                                              ; preds = %128, %83
  call void @llvm.lifetime.end.p0i8(i64 100, i8* nonnull %7) #8
  call void @llvm.lifetime.end.p0i8(i64 100, i8* nonnull %6) #8
  call void @llvm.lifetime.end.p0i8(i64 100, i8* nonnull %5) #8
  ret i32 0
}

; Function Attrs: argmemonly mustprogress nofree nosync nounwind willreturn
declare void @llvm.lifetime.start.p0i8(i64 immarg, i8* nocapture) #4

; Function Attrs: argmemonly mustprogress nofree nosync nounwind willreturn
declare void @llvm.lifetime.end.p0i8(i64 immarg, i8* nocapture) #4

declare nonnull align 8 dereferenceable(16) %"class.std::basic_istream"* @_ZNSi7getlineEPclc(%"class.std::basic_istream"* nonnull align 8 dereferenceable(16), i8*, i64, i8 signext) local_unnamed_addr #0

; Function Attrs: noreturn
declare void @_ZSt16__throw_bad_castv() local_unnamed_addr #5

declare void @_ZNKSt5ctypeIcE13_M_widen_initEv(%"class.std::ctype"* nonnull align 8 dereferenceable(570)) local_unnamed_addr #0

declare nonnull align 8 dereferenceable(8) %"class.std::basic_ostream"* @_ZSt16__ostream_insertIcSt11char_traitsIcEERSt13basic_ostreamIT_T0_ES6_PKS3_l(%"class.std::basic_ostream"* nonnull align 8 dereferenceable(8), i8*, i64) local_unnamed_addr #0

; Function Attrs: argmemonly mustprogress nofree nounwind readonly willreturn
declare i64 @strlen(i8* nocapture) local_unnamed_addr #6

; Function Attrs: sspstrong uwtable
define internal void @_GLOBAL__sub_I_1684.cpp() #7 section ".text.startup" {
  tail call void @_ZNSt8ios_base4InitC1Ev(%"class.std::ios_base::Init"* nonnull align 1 dereferenceable(1) @_ZStL8__ioinit)
  %1 = tail call i32 @__cxa_atexit(void (i8*)* bitcast (void (%"class.std::ios_base::Init"*)* @_ZNSt8ios_base4InitD1Ev to void (i8*)*), i8* getelementptr inbounds (%"class.std::ios_base::Init", %"class.std::ios_base::Init"* @_ZStL8__ioinit, i64 0, i32 0), i8* nonnull @__dso_handle) #8
  ret void
}


!llvm.module.flags = !{!0, !1, !2, !3}
!llvm.ident = !{!4}

!0 = !{i32 1, !"wchar_size", i32 4}
!1 = !{i32 7, !"PIC Level", i32 2}
!2 = !{i32 7, !"PIE Level", i32 2}
!3 = !{i32 7, !"uwtable", i32 1}
!4 = !{!"clang version 13.0.0"}
!5 = !{!6, !6, i64 0}
!6 = !{!"vtable pointer", !7, i64 0}
!7 = !{!"Simple C++ TBAA"}
!8 = !{!9, !10, i64 240}
!9 = !{!"_ZTSSt9basic_iosIcSt11char_traitsIcEE", !10, i64 216, !11, i64 224, !12, i64 225, !10, i64 232, !10, i64 240, !10, i64 248, !10, i64 256}
!10 = !{!"any pointer", !11, i64 0}
!11 = !{!"omnipotent char", !7, i64 0}
!12 = !{!"bool", !11, i64 0}
!13 = !{!14, !11, i64 56}
!14 = !{!"_ZTSSt5ctypeIcE", !10, i64 16, !12, i64 24, !10, i64 32, !10, i64 40, !10, i64 48, !11, i64 56, !11, i64 57, !11, i64 313, !11, i64 569}
!15 = !{!11, !11, i64 0}
!16 = distinct !{!16, !17}
!17 = !{!"llvm.loop.mustprogress"}
